target datalayout = "e-m:e-p270:32:32-p271:32:32-p272:64:64-i64:64-i128:128-f80:128-n8:16:32:64-S128"
target triple = "x86_64-pc-linux-gnu"

%struct.SwsInternal = type { %struct.SwsContext, ptr, ptr, ptr, ptr, i32, [2 x ptr], i32, i32, ptr, i32, i32, i32, i32, i32, i32, i32, i32, i32, i32, i32, i32, i32, i32, i32, i32, i32, i32, ptr, ptr, %struct.RangeList, [3 x ptr], [2 x [4 x i32]], [2 x [4 x ptr]], i32, double, i32, ptr, ptr, i32, [2 x i32], i32, ptr, ptr, [256 x i32], [256 x i32], [256 x float], i32, i32, ptr, i32, ptr, ptr, ptr, ptr, ptr, ptr, ptr, ptr, i32, i32, i32, i32, i32, i32, ptr, ptr, i32, i32, i32, ptr, [8 x i8], [1280 x i32], [1280 x ptr], [1280 x ptr], [1280 x ptr], [176 x i32], [4 x ptr], i32, i32, i32, [4 x i32], [4 x i32], i32, i32, i32, i32, i32, i32, i32, i32, i32, i32, i64, i64, i64, i64, i64, i64, i64, i64, i64, i64, i64, [1024 x i32], [1024 x i32], i32, i64, i64, i64, i64, i64, [1024 x i32], i64, i64, [8 x i16], [8 x i32], ptr, ptr, i32, ptr, ptr, ptr, ptr, [3 x [4 x i16]], [3 x [4 x i16]], ptr, ptr, ptr, ptr, ptr, ptr, ptr, ptr, ptr, ptr, ptr, ptr, ptr, ptr, ptr, ptr, ptr, ptr, ptr, ptr, i32, i32, i64, i64, i32, ptr, i32, ptr, i32, i32, i32, i32, i32, ptr }
%struct.SwsContext = type { ptr, ptr, i32, [2 x double], i32, i32, i32, i32, i32, i32, i32, i32, i32, i32, i32, i32, i32, i32, i32, i32, i32 }
%struct.RangeList = type { ptr, i32, i32 }

; Function Attrs: alwaysinline nounwind willreturn memory(none) uwtable
define internal i32 @av_bswap32(i32 noundef %0) #7 {
  %2 = alloca i32, align 4
  store i32 %0, ptr %2, align 4, !tbaa !9
  %3 = load i32, ptr %2, align 4, !tbaa !9
  %4 = shl i32 %3, 8
  %5 = and i32 %4, 65280
  %6 = load i32, ptr %2, align 4, !tbaa !9
  %7 = lshr i32 %6, 8
  %8 = and i32 %7, 255
  %9 = or i32 %5, %8
  %10 = shl i32 %9, 16
  %11 = load i32, ptr %2, align 4, !tbaa !9
  %12 = lshr i32 %11, 16
  %13 = shl i32 %12, 8
  %14 = and i32 %13, 65280
  %15 = load i32, ptr %2, align 4, !tbaa !9
  %16 = lshr i32 %15, 16
  %17 = lshr i32 %16, 8
  %18 = and i32 %17, 255
  %19 = or i32 %14, %18
  %20 = or i32 %10, %19
  ret i32 %20
}

; Function Attrs: nounwind uwtable
define internal i32 @bswap_32bpc(ptr noundef %0, ptr noundef %1, ptr noundef %2, i32 noundef %3, i32 noundef %4, ptr noundef %5, ptr noundef %6) #0 {
  %8 = alloca ptr, align 8
  %9 = alloca ptr, align 8
  %10 = alloca ptr, align 8
  %11 = alloca i32, align 4
  %12 = alloca i32, align 4
  %13 = alloca ptr, align 8
  %14 = alloca ptr, align 8
  %15 = alloca i32, align 4
  %16 = alloca i32, align 4
  %17 = alloca i32, align 4
  %18 = alloca i32, align 4
  %19 = alloca i32, align 4
  %20 = alloca ptr, align 8
  %21 = alloca ptr, align 8
  %22 = alloca i32, align 4
  %23 = alloca i32, align 4
  store ptr %0, ptr %8, align 8, !tbaa !13
  store ptr %1, ptr %9, align 8, !tbaa !52
  store ptr %2, ptr %10, align 8, !tbaa !54
  store i32 %3, ptr %11, align 4, !tbaa !9
  store i32 %4, ptr %12, align 4, !tbaa !9
  store ptr %5, ptr %13, align 8, !tbaa !52
  store ptr %6, ptr %14, align 8, !tbaa !54
  call void @llvm.lifetime.start.p0(i64 4, ptr %15) #11
  call void @llvm.lifetime.start.p0(i64 4, ptr %16) #11
  call void @llvm.lifetime.start.p0(i64 4, ptr %17) #11
  store i32 0, ptr %17, align 4, !tbaa !9
  br label %24

24:                                               ; preds = %151, %7
  %25 = load i32, ptr %17, align 4, !tbaa !9
  %26 = icmp slt i32 %25, 4
  br i1 %26, label %27, label %154

27:                                               ; preds = %24
  call void @llvm.lifetime.start.p0(i64 4, ptr %18) #11
  %28 = load ptr, ptr %10, align 8, !tbaa !54
  %29 = load i32, ptr %17, align 4, !tbaa !9
  %30 = sext i32 %29 to i64
  %31 = getelementptr inbounds i32, ptr %28, i64 %30
  %32 = load i32, ptr %31, align 4, !tbaa !9
  %33 = sdiv i32 %32, 4
  store i32 %33, ptr %18, align 4, !tbaa !9
  call void @llvm.lifetime.start.p0(i64 4, ptr %19) #11
  %34 = load ptr, ptr %14, align 8, !tbaa !54
  %35 = load i32, ptr %17, align 4, !tbaa !9
  %36 = sext i32 %35 to i64
  %37 = getelementptr inbounds i32, ptr %34, i64 %36
  %38 = load i32, ptr %37, align 4, !tbaa !9
  %39 = sdiv i32 %38, 4
  store i32 %39, ptr %19, align 4, !tbaa !9
  call void @llvm.lifetime.start.p0(i64 8, ptr %20) #11
  %40 = load ptr, ptr %13, align 8, !tbaa !52
  %41 = load i32, ptr %17, align 4, !tbaa !9
  %42 = sext i32 %41 to i64
  %43 = getelementptr inbounds ptr, ptr %40, i64 %42
  %44 = load ptr, ptr %43, align 8, !tbaa !4
  store ptr %44, ptr %20, align 8, !tbaa !54
  call void @llvm.lifetime.start.p0(i64 8, ptr %21) #11
  %45 = load ptr, ptr %9, align 8, !tbaa !52
  %46 = load i32, ptr %17, align 4, !tbaa !9
  %47 = sext i32 %46 to i64
  %48 = getelementptr inbounds ptr, ptr %45, i64 %47
  %49 = load ptr, ptr %48, align 8, !tbaa !4
  store ptr %49, ptr %21, align 8, !tbaa !54
  call void @llvm.lifetime.start.p0(i64 4, ptr %22) #11
  %50 = load i32, ptr %18, align 4, !tbaa !9
  %51 = icmp sge i32 %50, 0
  br i1 %51, label %52, label %54

52:                                               ; preds = %27
  %53 = load i32, ptr %18, align 4, !tbaa !9
  br label %57

54:                                               ; preds = %27
  %55 = load i32, ptr %18, align 4, !tbaa !9
  %56 = sub nsw i32 0, %55
  br label %57

57:                                               ; preds = %54, %52
  %58 = phi i32 [ %53, %52 ], [ %56, %54 ]
  %59 = load i32, ptr %19, align 4, !tbaa !9
  %60 = icmp sge i32 %59, 0
  br i1 %60, label %61, label %63

61:                                               ; preds = %57
  %62 = load i32, ptr %19, align 4, !tbaa !9
  br label %66

63:                                               ; preds = %57
  %64 = load i32, ptr %19, align 4, !tbaa !9
  %65 = sub nsw i32 0, %64
  br label %66

66:                                               ; preds = %63, %61
  %67 = phi i32 [ %62, %61 ], [ %65, %63 ]
  %68 = icmp sgt i32 %58, %67
  br i1 %68, label %69, label %79

69:                                               ; preds = %66
  %70 = load i32, ptr %19, align 4, !tbaa !9
  %71 = icmp sge i32 %70, 0
  br i1 %71, label %72, label %74

72:                                               ; preds = %69
  %73 = load i32, ptr %19, align 4, !tbaa !9
  br label %77

74:                                               ; preds = %69
  %75 = load i32, ptr %19, align 4, !tbaa !9
  %76 = sub nsw i32 0, %75
  br label %77

77:                                               ; preds = %74, %72
  %78 = phi i32 [ %73, %72 ], [ %76, %74 ]
  br label %89

79:                                               ; preds = %66
  %80 = load i32, ptr %18, align 4, !tbaa !9
  %81 = icmp sge i32 %80, 0
  br i1 %81, label %82, label %84

82:                                               ; preds = %79
  %83 = load i32, ptr %18, align 4, !tbaa !9
  br label %87

84:                                               ; preds = %79
  %85 = load i32, ptr %18, align 4, !tbaa !9
  %86 = sub nsw i32 0, %85
  br label %87

87:                                               ; preds = %84, %82
  %88 = phi i32 [ %83, %82 ], [ %86, %84 ]
  br label %89

89:                                               ; preds = %87, %77
  %90 = phi i32 [ %78, %77 ], [ %88, %87 ]
  store i32 %90, ptr %22, align 4, !tbaa !9
  %91 = load ptr, ptr %20, align 8, !tbaa !54
  %92 = icmp ne ptr %91, null
  br i1 %92, label %93, label %96

93:                                               ; preds = %89
  %94 = load ptr, ptr %21, align 8, !tbaa !54
  %95 = icmp ne ptr %94, null
  br i1 %95, label %97, label %96

96:                                               ; preds = %93, %89
  store i32 4, ptr %23, align 4
  br label %148

97:                                               ; preds = %93
  %98 = load i32, ptr %11, align 4, !tbaa !9
  %99 = load ptr, ptr %8, align 8, !tbaa !13
  %100 = getelementptr inbounds nuw %struct.SwsInternal, ptr %99, i32 0, i32 25
  %101 = load i32, ptr %100, align 4, !tbaa !46
  %102 = ashr i32 %98, %101
  %103 = load i32, ptr %19, align 4, !tbaa !9
  %104 = mul nsw i32 %102, %103
  %105 = load ptr, ptr %20, align 8, !tbaa !54
  %106 = sext i32 %104 to i64
  %107 = getelementptr inbounds i32, ptr %105, i64 %106
  store ptr %107, ptr %20, align 8, !tbaa !54
  store i32 0, ptr %15, align 4, !tbaa !9
  br label %108

108:                                              ; preds = %144, %97
  %109 = load i32, ptr %15, align 4, !tbaa !9
  %110 = load i32, ptr %12, align 4, !tbaa !9
  %111 = load ptr, ptr %8, align 8, !tbaa !13
  %112 = getelementptr inbounds nuw %struct.SwsInternal, ptr %111, i32 0, i32 25
  %113 = load i32, ptr %112, align 4, !tbaa !46
  %114 = ashr i32 %110, %113
  %115 = icmp slt i32 %109, %114
  br i1 %115, label %116, label %147

116:                                              ; preds = %108
  store i32 0, ptr %16, align 4, !tbaa !9
  br label %117

117:                                              ; preds = %132, %116
  %118 = load i32, ptr %16, align 4, !tbaa !9
  %119 = load i32, ptr %22, align 4, !tbaa !9
  %120 = icmp slt i32 %118, %119
  br i1 %120, label %121, label %135

121:                                              ; preds = %117
  %122 = load ptr, ptr %21, align 8, !tbaa !54
  %123 = load i32, ptr %16, align 4, !tbaa !9
  %124 = sext i32 %123 to i64
  %125 = getelementptr inbounds i32, ptr %122, i64 %124
  %126 = load i32, ptr %125, align 4, !tbaa !9
  %127 = call i32 @av_bswap32(i32 noundef %126) #13
  %128 = load ptr, ptr %20, align 8, !tbaa !54
  %129 = load i32, ptr %16, align 4, !tbaa !9
  %130 = sext i32 %129 to i64
  %131 = getelementptr inbounds i32, ptr %128, i64 %130
  store i32 %127, ptr %131, align 4, !tbaa !9
  br label %132

132:                                              ; preds = %121
  %133 = load i32, ptr %16, align 4, !tbaa !9
  %134 = add nsw i32 %133, 1
  store i32 %134, ptr %16, align 4, !tbaa !9
  br label %117, !llvm.loop !85

135:                                              ; preds = %117
  %136 = load i32, ptr %18, align 4, !tbaa !9
  %137 = load ptr, ptr %21, align 8, !tbaa !54
  %138 = sext i32 %136 to i64
  %139 = getelementptr inbounds i32, ptr %137, i64 %138
  store ptr %139, ptr %21, align 8, !tbaa !54
  %140 = load i32, ptr %19, align 4, !tbaa !9
  %141 = load ptr, ptr %20, align 8, !tbaa !54
  %142 = sext i32 %140 to i64
  %143 = getelementptr inbounds i32, ptr %141, i64 %142
  store ptr %143, ptr %20, align 8, !tbaa !54
  br label %144

144:                                              ; preds = %135
  %145 = load i32, ptr %15, align 4, !tbaa !9
  %146 = add nsw i32 %145, 1
  store i32 %146, ptr %15, align 4, !tbaa !9
  br label %108, !llvm.loop !86

147:                                              ; preds = %108
  store i32 0, ptr %23, align 4
  br label %148

148:                                              ; preds = %147, %96
  call void @llvm.lifetime.end.p0(i64 4, ptr %22) #11
  call void @llvm.lifetime.end.p0(i64 8, ptr %21) #11
  call void @llvm.lifetime.end.p0(i64 8, ptr %20) #11
  call void @llvm.lifetime.end.p0(i64 4, ptr %19) #11
  call void @llvm.lifetime.end.p0(i64 4, ptr %18) #11
  %149 = load i32, ptr %23, align 4
  switch i32 %149, label %156 [
    i32 0, label %150
    i32 4, label %151
  ]

150:                                              ; preds = %148
  br label %151

151:                                              ; preds = %150, %148
  %152 = load i32, ptr %17, align 4, !tbaa !9
  %153 = add nsw i32 %152, 1
  store i32 %153, ptr %17, align 4, !tbaa !9
  br label %24, !llvm.loop !87

154:                                              ; preds = %24
  %155 = load i32, ptr %12, align 4, !tbaa !9
  store i32 1, ptr %23, align 4
  call void @llvm.lifetime.end.p0(i64 4, ptr %17) #11
  call void @llvm.lifetime.end.p0(i64 4, ptr %16) #11
  call void @llvm.lifetime.end.p0(i64 4, ptr %15) #11
  ret i32 %155

156:                                              ; preds = %148
  unreachable
}