; Function Attrs: nofree norecurse nosync nounwind memory(readwrite, inaccessiblemem: none) uwtable
define internal noundef i32 @bswap_32bpc(ptr noundef readonly captures(none) %0, ptr noundef readonly captures(none) %1, ptr noundef readonly captures(none) %2, i32 noundef %3, i32 noundef returned %4, ptr noundef readonly captures(none) %5, ptr noundef readonly captures(none) %6) #6 {
  %8 = getelementptr inbounds nuw i8, ptr %0, i64 244
  br label %9

9:                                                ; preds = %7, %.loopexit
  %indvars.iv59 = phi i64 [ 0, %7 ], [ %indvars.iv.next60, %.loopexit ]
  %10 = getelementptr inbounds nuw i32, ptr %2, i64 %indvars.iv59
  %11 = load i32, ptr %10, align 4, !tbaa !48
  %12 = sdiv i32 %11, 4
  %13 = getelementptr inbounds nuw i32, ptr %6, i64 %indvars.iv59
  %14 = load i32, ptr %13, align 4, !tbaa !48
  %15 = sdiv i32 %14, 4
  %16 = getelementptr inbounds nuw ptr, ptr %5, i64 %indvars.iv59
  %17 = load ptr, ptr %16, align 8, !tbaa !49
  %18 = getelementptr inbounds nuw ptr, ptr %1, i64 %indvars.iv59
  %19 = load ptr, ptr %18, align 8, !tbaa !49
  %20 = tail call i32 @llvm.abs.i32(i32 %12, i1 true)
  %21 = tail call i32 @llvm.abs.i32(i32 %15, i1 true)
  %. = tail call i32 @llvm.umin.i32(i32 %20, i32 %21)
  %22 = icmp ne ptr %17, null
  %23 = icmp ne ptr %19, null
  %or.cond = select i1 %22, i1 %23, i1 false
  br i1 %or.cond, label %24, label %.loopexit

24:                                               ; preds = %9
  %25 = load i32, ptr %8, align 4, !tbaa !45
  %26 = ashr i32 %4, %25
  %27 = icmp sgt i32 %26, 0
  br i1 %27, label %.preheader.lr.ph, label %.loopexit

.preheader.lr.ph:                                 ; preds = %24
  %.not = icmp eq i32 %., 0
  %28 = sext i32 %12 to i64
  %29 = sext i32 %15 to i64
  br i1 %.not, label %.loopexit, label %.preheader.us.preheader

.preheader.us.preheader:                          ; preds = %.preheader.lr.ph
  %30 = ashr i32 %3, %25
  %31 = mul nsw i32 %30, %15
  %32 = sext i32 %31 to i64
  %33 = getelementptr inbounds i32, ptr %17, i64 %32
  %34 = zext nneg i32 %. to i64
  br label %.preheader.us

.preheader.us:                                    ; preds = %.preheader.us.preheader, %._crit_edge.us
  %.055.us = phi i32 [ %43, %._crit_edge.us ], [ 0, %.preheader.us.preheader ]
  %.04454.us = phi ptr [ %41, %._crit_edge.us ], [ %19, %.preheader.us.preheader ]
  %.04553.us = phi ptr [ %42, %._crit_edge.us ], [ %33, %.preheader.us.preheader ]
  br label %35

35:                                               ; preds = %.preheader.us, %35
  %indvars.iv = phi i64 [ 0, %.preheader.us ], [ %indvars.iv.next, %35 ]
  %36 = getelementptr inbounds nuw i32, ptr %.04454.us, i64 %indvars.iv
  %37 = load i32, ptr %36, align 4, !tbaa !48
  %38 = tail call i32 @llvm.bswap.i32(i32 %37)
  %39 = getelementptr inbounds nuw i32, ptr %.04553.us, i64 %indvars.iv
  store i32 %38, ptr %39, align 4, !tbaa !48
  %indvars.iv.next = add nuw nsw i64 %indvars.iv, 1
  %40 = icmp samesign ult i64 %indvars.iv.next, %34
  br i1 %40, label %35, label %._crit_edge.us, !llvm.loop !88

._crit_edge.us:                                   ; preds = %35
  %41 = getelementptr inbounds i32, ptr %.04454.us, i64 %28
  %42 = getelementptr inbounds i32, ptr %.04553.us, i64 %29
  %43 = add nuw nsw i32 %.055.us, 1
  %44 = load i32, ptr %8, align 4, !tbaa !45
  %45 = ashr i32 %4, %44
  %46 = icmp slt i32 %43, %45
  br i1 %46, label %.preheader.us, label %.loopexit, !llvm.loop !89

.loopexit:                                        ; preds = %._crit_edge.us, %.preheader.lr.ph, %24, %9
  %indvars.iv.next60 = add nuw nsw i64 %indvars.iv59, 1
  %exitcond.not = icmp eq i64 %indvars.iv.next60, 4
  br i1 %exitcond.not, label %47, label %9, !llvm.loop !90

47:                                               ; preds = %.loopexit
  ret i32 %4
}